(dp0
S'sharabi'
p1
I13
sS'bar'
p2
I1
sS'doyev'
p3
I7
sS'sadot'
p4
I9
sS'rousso'
p5
I11
sS'ely'
p6
I2
sS'shaffir'
p7
I3
sS'inbar'
p8
I10
sS'aviv'
p9
I6
sS'ori'
p10
I12
sS'karni'
p11
I0
sS'tamar'
p12
I8
sS'ronny'
p13
I4
sS'baranetz'
p14
I5
s.